; Function Attrs: nounwind uwtable
define internal range(i32 0, 2) i32 @ecdsa_digest_sign_final(ptr noundef %0, ptr noundef %1, ptr noundef writeonly captures(none) %2, i64 noundef %3) #0 {
  %5 = alloca [64 x i8], align 16
  %6 = alloca i32, align 4
  %7 = icmp eq ptr %0, null
  br i1 %7, label %33, label %8

8:                                                ; preds = %4
  %9 = getelementptr inbounds nuw i8, ptr %0, i64 28
  %10 = load i8, ptr %9, align 4
  %11 = and i8 %10, 1
  %.not = icmp eq i8 %11, 0
  br i1 %.not, label %12, label %33

12:                                               ; preds = %8
  call void @llvm.lifetime.start.p0(i64 64, ptr nonnull %5) #8
  call void @llvm.lifetime.start.p0(i64 4, ptr nonnull %6) #8
  store i32 0, ptr %6, align 4, !tbaa !21
  %13 = tail call i32 @ossl_prov_is_running() #8
  %14 = icmp eq i32 %13, 0
  br i1 %14, label %ecdsa_sign_message_final.exit, label %15

15:                                               ; preds = %12
  %16 = getelementptr inbounds nuw i8, ptr %0, i64 360
  %17 = load ptr, ptr %16, align 8, !tbaa !18
  %18 = icmp eq ptr %17, null
  br i1 %18, label %ecdsa_sign_message_final.exit, label %19

19:                                               ; preds = %15
  %.not.i = icmp eq ptr %1, null
  br i1 %.not.i, label %.split.i, label %26

.split.i:                                         ; preds = %19
  %20 = getelementptr inbounds nuw i8, ptr %0, i64 16
  %21 = load ptr, ptr %20, align 8, !tbaa !19
  %22 = tail call i32 @ECDSA_size(ptr noundef %21) #8
  %23 = tail call i32 @ossl_prov_is_running() #8
  %.not.i.i = icmp eq i32 %23, 0
  br i1 %.not.i.i, label %ecdsa_sign_message_final.exit, label %24

24:                                               ; preds = %.split.i
  %25 = sext i32 %22 to i64
  store i64 %25, ptr %2, align 8, !tbaa !20
  br label %ecdsa_sign_message_final.exit

26:                                               ; preds = %19
  %27 = call i32 @EVP_DigestFinal_ex(ptr noundef nonnull %17, ptr noundef nonnull %5, ptr noundef nonnull %6) #8
  %.not14.i = icmp eq i32 %27, 0
  br i1 %.not14.i, label %ecdsa_sign_message_final.exit, label %.split10.i

.split10.i:                                       ; preds = %26
  %28 = load i32, ptr %6, align 4, !tbaa !21
  %29 = zext i32 %28 to i64
  %30 = call fastcc i32 @ecdsa_sign_directly(ptr noundef nonnull %0, ptr noundef nonnull %1, ptr noundef %2, i64 noundef %3, ptr noundef nonnull %5, i64 noundef %29)
  br label %ecdsa_sign_message_final.exit

ecdsa_sign_message_final.exit:                    ; preds = %12, %15, %.split.i, %24, %26, %.split10.i
  %.0.i = phi i32 [ 0, %12 ], [ 0, %15 ], [ 0, %26 ], [ %30, %.split10.i ], [ 0, %.split.i ], [ 1, %24 ]
  call void @llvm.lifetime.end.p0(i64 4, ptr nonnull %6) #8
  call void @llvm.lifetime.end.p0(i64 64, ptr nonnull %5) #8
  %31 = load i8, ptr %9, align 4
  %32 = or i8 %31, 2
  store i8 %32, ptr %9, align 4
  br label %33

33:                                               ; preds = %8, %4, %ecdsa_sign_message_final.exit
  %.0 = phi i32 [ %.0.i, %ecdsa_sign_message_final.exit ], [ 0, %4 ], [ 0, %8 ]
  ret i32 %.0
}